(dp0
Vmeta-freescale
p1
F7.660394906997681
sVmeta-fsl-bsp-release
p2
F7.737803936004639
sVfsl-community-bsp-base
p3
F1.6757378578186035
sVmeta-rust
p4
F2.7344419956207275
sVmeta-browser
p5
F3.093467950820923
sVmeta-timesys
p6
F5.0717689990997314
sVmeta-qt5
p7
F5.795506000518799
sVmeta-freescale-distro
p8
F4.2412190437316895
sVmeta-freescale-3rdparty
p9
F12.398107051849365
sVpoky
p10
F25.706480026245117
sVmeta-openembedded
p11
F11.544649124145508
s.