(dp0
Vmeta-fsl-demos
p1
F0.94483482837677
sVmeta-fsl-bsp-release
p2
F1.639180064201355
sVfsl-community-bsp-base
p3
F0.9668254852294922
sVmeta-fsl-arm
p4
F6.255088925361633
sVmeta-browser
p5
F1.1564584970474243
sVmeta-qt5
p6
F3.488365888595581
sVmeta-fsl-arm-extra
p7
F1.1634780168533325
sVpoky
p8
F5.401838421821594
sVmeta-openembedded
p9
F2047.4983614683151
s.